
rc_car_project.elf:     file format elf32-avr

Sections:
Idx Name          Size      VMA       LMA       File off  Algn
  0 .text         000008c0  00000000  00000000  00000094  2**1
                  CONTENTS, ALLOC, LOAD, READONLY, CODE
  1 .data         00000002  00800060  000008c0  00000954  2**0
                  CONTENTS, ALLOC, LOAD, DATA
  2 .bss          00000006  00800062  00800062  00000956  2**0
                  ALLOC

Disassembly of section .text:

00000000 <__vectors>:
   0:	0c 94 2a 00 	jmp	0x54	; 0x54 <__ctors_end>
   4:	0c 94 47 00 	jmp	0x8e	; 0x8e <__bad_interrupt>
   8:	0c 94 47 00 	jmp	0x8e	; 0x8e <__bad_interrupt>
   c:	0c 94 47 00 	jmp	0x8e	; 0x8e <__bad_interrupt>
  10:	0c 94 47 00 	jmp	0x8e	; 0x8e <__bad_interrupt>
  14:	0c 94 47 00 	jmp	0x8e	; 0x8e <__bad_interrupt>
  18:	0c 94 2f 02 	jmp	0x45e	; 0x45e <__vector_6>
  1c:	0c 94 47 00 	jmp	0x8e	; 0x8e <__bad_interrupt>
  20:	0c 94 47 00 	jmp	0x8e	; 0x8e <__bad_interrupt>
  24:	0c 94 47 00 	jmp	0x8e	; 0x8e <__bad_interrupt>
  28:	0c 94 47 00 	jmp	0x8e	; 0x8e <__bad_interrupt>
  2c:	0c 94 47 00 	jmp	0x8e	; 0x8e <__bad_interrupt>
  30:	0c 94 47 00 	jmp	0x8e	; 0x8e <__bad_interrupt>
  34:	0c 94 47 00 	jmp	0x8e	; 0x8e <__bad_interrupt>
  38:	0c 94 47 00 	jmp	0x8e	; 0x8e <__bad_interrupt>
  3c:	0c 94 47 00 	jmp	0x8e	; 0x8e <__bad_interrupt>
  40:	0c 94 47 00 	jmp	0x8e	; 0x8e <__bad_interrupt>
  44:	0c 94 47 00 	jmp	0x8e	; 0x8e <__bad_interrupt>
  48:	0c 94 47 00 	jmp	0x8e	; 0x8e <__bad_interrupt>
  4c:	0c 94 47 00 	jmp	0x8e	; 0x8e <__bad_interrupt>
  50:	0c 94 47 00 	jmp	0x8e	; 0x8e <__bad_interrupt>

00000054 <__ctors_end>:
  54:	11 24       	eor	r1, r1
  56:	1f be       	out	0x3f, r1	; 63
  58:	cf e5       	ldi	r28, 0x5F	; 95
  5a:	d8 e0       	ldi	r29, 0x08	; 8
  5c:	de bf       	out	0x3e, r29	; 62
  5e:	cd bf       	out	0x3d, r28	; 61

00000060 <__do_copy_data>:
  60:	10 e0       	ldi	r17, 0x00	; 0
  62:	a0 e6       	ldi	r26, 0x60	; 96
  64:	b0 e0       	ldi	r27, 0x00	; 0
  66:	e0 ec       	ldi	r30, 0xC0	; 192
  68:	f8 e0       	ldi	r31, 0x08	; 8
  6a:	02 c0       	rjmp	.+4      	; 0x70 <.do_copy_data_start>

0000006c <.do_copy_data_loop>:
  6c:	05 90       	lpm	r0, Z+
  6e:	0d 92       	st	X+, r0

00000070 <.do_copy_data_start>:
  70:	a2 36       	cpi	r26, 0x62	; 98
  72:	b1 07       	cpc	r27, r17
  74:	d9 f7       	brne	.-10     	; 0x6c <.do_copy_data_loop>

00000076 <__do_clear_bss>:
  76:	10 e0       	ldi	r17, 0x00	; 0
  78:	a2 e6       	ldi	r26, 0x62	; 98
  7a:	b0 e0       	ldi	r27, 0x00	; 0
  7c:	01 c0       	rjmp	.+2      	; 0x80 <.do_clear_bss_start>

0000007e <.do_clear_bss_loop>:
  7e:	1d 92       	st	X+, r1

00000080 <.do_clear_bss_start>:
  80:	a8 36       	cpi	r26, 0x68	; 104
  82:	b1 07       	cpc	r27, r17
  84:	e1 f7       	brne	.-8      	; 0x7e <.do_clear_bss_loop>
  86:	0e 94 b1 03 	call	0x762	; 0x762 <main>
  8a:	0c 94 5e 04 	jmp	0x8bc	; 0x8bc <_exit>

0000008e <__bad_interrupt>:
  8e:	0c 94 00 00 	jmp	0	; 0x0 <__vectors>

00000092 <Buzzer_off>:
  92:	82 e0       	ldi	r24, 0x02	; 2
  94:	65 e0       	ldi	r22, 0x05	; 5
  96:	40 e0       	ldi	r20, 0x00	; 0
  98:	0e 94 62 01 	call	0x2c4	; 0x2c4 <pinWrite>
  9c:	08 95       	ret

0000009e <Buzzer_on>:
  9e:	82 e0       	ldi	r24, 0x02	; 2
  a0:	65 e0       	ldi	r22, 0x05	; 5
  a2:	41 e0       	ldi	r20, 0x01	; 1
  a4:	0e 94 62 01 	call	0x2c4	; 0x2c4 <pinWrite>
  a8:	08 95       	ret

000000aa <Buzzer_pep>:
  aa:	82 e0       	ldi	r24, 0x02	; 2
  ac:	65 e0       	ldi	r22, 0x05	; 5
  ae:	41 e0       	ldi	r20, 0x01	; 1
  b0:	0e 94 62 01 	call	0x2c4	; 0x2c4 <pinWrite>
  b4:	80 e1       	ldi	r24, 0x10	; 16
  b6:	97 e2       	ldi	r25, 0x27	; 39
  b8:	20 e9       	ldi	r18, 0x90	; 144
  ba:	31 e0       	ldi	r19, 0x01	; 1
  bc:	f9 01       	movw	r30, r18
  be:	31 97       	sbiw	r30, 0x01	; 1
  c0:	f1 f7       	brne	.-4      	; 0xbe <Buzzer_pep+0x14>
  c2:	01 97       	sbiw	r24, 0x01	; 1
  c4:	d9 f7       	brne	.-10     	; 0xbc <Buzzer_pep+0x12>
  c6:	82 e0       	ldi	r24, 0x02	; 2
  c8:	65 e0       	ldi	r22, 0x05	; 5
  ca:	40 e0       	ldi	r20, 0x00	; 0
  cc:	0e 94 62 01 	call	0x2c4	; 0x2c4 <pinWrite>
  d0:	08 95       	ret

000000d2 <Buzzer_init>:
  d2:	82 e0       	ldi	r24, 0x02	; 2
  d4:	65 e0       	ldi	r22, 0x05	; 5
  d6:	41 e0       	ldi	r20, 0x01	; 1
  d8:	0e 94 ee 00 	call	0x1dc	; 0x1dc <pinMode>
  dc:	82 e0       	ldi	r24, 0x02	; 2
  de:	65 e0       	ldi	r22, 0x05	; 5
  e0:	40 e0       	ldi	r20, 0x00	; 0
  e2:	0e 94 62 01 	call	0x2c4	; 0x2c4 <pinWrite>
  e6:	08 95       	ret

000000e8 <Motor2_Rot>:
  e8:	81 30       	cpi	r24, 0x01	; 1
  ea:	71 f0       	breq	.+28     	; 0x108 <Motor2_Rot+0x20>
  ec:	81 30       	cpi	r24, 0x01	; 1
  ee:	18 f0       	brcs	.+6      	; 0xf6 <Motor2_Rot+0xe>
  f0:	82 30       	cpi	r24, 0x02	; 2
  f2:	f9 f4       	brne	.+62     	; 0x132 <Motor2_Rot+0x4a>
  f4:	14 c0       	rjmp	.+40     	; 0x11e <Motor2_Rot+0x36>
  f6:	80 e0       	ldi	r24, 0x00	; 0
  f8:	62 e0       	ldi	r22, 0x02	; 2
  fa:	40 e0       	ldi	r20, 0x00	; 0
  fc:	0e 94 62 01 	call	0x2c4	; 0x2c4 <pinWrite>
 100:	80 e0       	ldi	r24, 0x00	; 0
 102:	64 e0       	ldi	r22, 0x04	; 4
 104:	41 e0       	ldi	r20, 0x01	; 1
 106:	08 c0       	rjmp	.+16     	; 0x118 <Motor2_Rot+0x30>
 108:	80 e0       	ldi	r24, 0x00	; 0
 10a:	62 e0       	ldi	r22, 0x02	; 2
 10c:	41 e0       	ldi	r20, 0x01	; 1
 10e:	0e 94 62 01 	call	0x2c4	; 0x2c4 <pinWrite>
 112:	80 e0       	ldi	r24, 0x00	; 0
 114:	64 e0       	ldi	r22, 0x04	; 4
 116:	40 e0       	ldi	r20, 0x00	; 0
 118:	0e 94 62 01 	call	0x2c4	; 0x2c4 <pinWrite>
 11c:	08 95       	ret
 11e:	80 e0       	ldi	r24, 0x00	; 0
 120:	62 e0       	ldi	r22, 0x02	; 2
 122:	40 e0       	ldi	r20, 0x00	; 0
 124:	0e 94 62 01 	call	0x2c4	; 0x2c4 <pinWrite>
 128:	80 e0       	ldi	r24, 0x00	; 0
 12a:	64 e0       	ldi	r22, 0x04	; 4
 12c:	40 e0       	ldi	r20, 0x00	; 0
 12e:	0e 94 62 01 	call	0x2c4	; 0x2c4 <pinWrite>
 132:	08 95       	ret

00000134 <Motor1_Rot>:
 134:	81 30       	cpi	r24, 0x01	; 1
 136:	71 f0       	breq	.+28     	; 0x154 <Motor1_Rot+0x20>
 138:	81 30       	cpi	r24, 0x01	; 1
 13a:	18 f0       	brcs	.+6      	; 0x142 <Motor1_Rot+0xe>
 13c:	82 30       	cpi	r24, 0x02	; 2
 13e:	f9 f4       	brne	.+62     	; 0x17e <Motor1_Rot+0x4a>
 140:	14 c0       	rjmp	.+40     	; 0x16a <Motor1_Rot+0x36>
 142:	80 e0       	ldi	r24, 0x00	; 0
 144:	60 e0       	ldi	r22, 0x00	; 0
 146:	40 e0       	ldi	r20, 0x00	; 0
 148:	0e 94 62 01 	call	0x2c4	; 0x2c4 <pinWrite>
 14c:	80 e0       	ldi	r24, 0x00	; 0
 14e:	61 e0       	ldi	r22, 0x01	; 1
 150:	41 e0       	ldi	r20, 0x01	; 1
 152:	08 c0       	rjmp	.+16     	; 0x164 <Motor1_Rot+0x30>
 154:	80 e0       	ldi	r24, 0x00	; 0
 156:	60 e0       	ldi	r22, 0x00	; 0
 158:	41 e0       	ldi	r20, 0x01	; 1
 15a:	0e 94 62 01 	call	0x2c4	; 0x2c4 <pinWrite>
 15e:	80 e0       	ldi	r24, 0x00	; 0
 160:	61 e0       	ldi	r22, 0x01	; 1
 162:	40 e0       	ldi	r20, 0x00	; 0
 164:	0e 94 62 01 	call	0x2c4	; 0x2c4 <pinWrite>
 168:	08 95       	ret
 16a:	80 e0       	ldi	r24, 0x00	; 0
 16c:	60 e0       	ldi	r22, 0x00	; 0
 16e:	40 e0       	ldi	r20, 0x00	; 0
 170:	0e 94 62 01 	call	0x2c4	; 0x2c4 <pinWrite>
 174:	80 e0       	ldi	r24, 0x00	; 0
 176:	61 e0       	ldi	r22, 0x01	; 1
 178:	40 e0       	ldi	r20, 0x00	; 0
 17a:	0e 94 62 01 	call	0x2c4	; 0x2c4 <pinWrite>
 17e:	08 95       	ret

00000180 <Motor_Init>:
 180:	80 e0       	ldi	r24, 0x00	; 0
 182:	60 e0       	ldi	r22, 0x00	; 0
 184:	41 e0       	ldi	r20, 0x01	; 1
 186:	0e 94 ee 00 	call	0x1dc	; 0x1dc <pinMode>
 18a:	80 e0       	ldi	r24, 0x00	; 0
 18c:	61 e0       	ldi	r22, 0x01	; 1
 18e:	41 e0       	ldi	r20, 0x01	; 1
 190:	0e 94 ee 00 	call	0x1dc	; 0x1dc <pinMode>
 194:	80 e0       	ldi	r24, 0x00	; 0
 196:	62 e0       	ldi	r22, 0x02	; 2
 198:	41 e0       	ldi	r20, 0x01	; 1
 19a:	0e 94 ee 00 	call	0x1dc	; 0x1dc <pinMode>
 19e:	80 e0       	ldi	r24, 0x00	; 0
 1a0:	64 e0       	ldi	r22, 0x04	; 4
 1a2:	41 e0       	ldi	r20, 0x01	; 1
 1a4:	0e 94 ee 00 	call	0x1dc	; 0x1dc <pinMode>
 1a8:	80 e0       	ldi	r24, 0x00	; 0
 1aa:	60 e0       	ldi	r22, 0x00	; 0
 1ac:	40 e0       	ldi	r20, 0x00	; 0
 1ae:	0e 94 62 01 	call	0x2c4	; 0x2c4 <pinWrite>
 1b2:	80 e0       	ldi	r24, 0x00	; 0
 1b4:	61 e0       	ldi	r22, 0x01	; 1
 1b6:	40 e0       	ldi	r20, 0x00	; 0
 1b8:	0e 94 62 01 	call	0x2c4	; 0x2c4 <pinWrite>
 1bc:	80 e0       	ldi	r24, 0x00	; 0
 1be:	62 e0       	ldi	r22, 0x02	; 2
 1c0:	40 e0       	ldi	r20, 0x00	; 0
 1c2:	0e 94 62 01 	call	0x2c4	; 0x2c4 <pinWrite>
 1c6:	80 e0       	ldi	r24, 0x00	; 0
 1c8:	64 e0       	ldi	r22, 0x04	; 4
 1ca:	40 e0       	ldi	r20, 0x00	; 0
 1cc:	0e 94 62 01 	call	0x2c4	; 0x2c4 <pinWrite>
 1d0:	0e 94 d8 03 	call	0x7b0	; 0x7b0 <T0_init>
 1d4:	84 e6       	ldi	r24, 0x64	; 100
 1d6:	0e 94 dd 03 	call	0x7ba	; 0x7ba <T0_PWM>
 1da:	08 95       	ret

000001dc <pinMode>:
 1dc:	68 30       	cpi	r22, 0x08	; 8
 1de:	08 f0       	brcs	.+2      	; 0x1e2 <pinMode+0x6>
 1e0:	70 c0       	rjmp	.+224    	; 0x2c2 <pinMode+0xe6>
 1e2:	8b 30       	cpi	r24, 0x0B	; 11
 1e4:	08 f0       	brcs	.+2      	; 0x1e8 <pinMode+0xc>
 1e6:	6d c0       	rjmp	.+218    	; 0x2c2 <pinMode+0xe6>
 1e8:	81 30       	cpi	r24, 0x01	; 1
 1ea:	09 f1       	breq	.+66     	; 0x22e <pinMode+0x52>
 1ec:	81 30       	cpi	r24, 0x01	; 1
 1ee:	30 f0       	brcs	.+12     	; 0x1fc <pinMode+0x20>
 1f0:	82 30       	cpi	r24, 0x02	; 2
 1f2:	b1 f1       	breq	.+108    	; 0x260 <pinMode+0x84>
 1f4:	83 30       	cpi	r24, 0x03	; 3
 1f6:	09 f0       	breq	.+2      	; 0x1fa <pinMode+0x1e>
 1f8:	64 c0       	rjmp	.+200    	; 0x2c2 <pinMode+0xe6>
 1fa:	4b c0       	rjmp	.+150    	; 0x292 <pinMode+0xb6>
 1fc:	41 30       	cpi	r20, 0x01	; 1
 1fe:	59 f4       	brne	.+22     	; 0x216 <pinMode+0x3a>
 200:	2a b3       	in	r18, 0x1a	; 26
 202:	81 e0       	ldi	r24, 0x01	; 1
 204:	90 e0       	ldi	r25, 0x00	; 0
 206:	02 c0       	rjmp	.+4      	; 0x20c <pinMode+0x30>
 208:	88 0f       	add	r24, r24
 20a:	99 1f       	adc	r25, r25
 20c:	6a 95       	dec	r22
 20e:	e2 f7       	brpl	.-8      	; 0x208 <pinMode+0x2c>
 210:	28 2b       	or	r18, r24
 212:	2a bb       	out	0x1a, r18	; 26
 214:	08 95       	ret
 216:	2a b3       	in	r18, 0x1a	; 26
 218:	81 e0       	ldi	r24, 0x01	; 1
 21a:	90 e0       	ldi	r25, 0x00	; 0
 21c:	02 c0       	rjmp	.+4      	; 0x222 <pinMode+0x46>
 21e:	88 0f       	add	r24, r24
 220:	99 1f       	adc	r25, r25
 222:	6a 95       	dec	r22
 224:	e2 f7       	brpl	.-8      	; 0x21e <pinMode+0x42>
 226:	80 95       	com	r24
 228:	82 23       	and	r24, r18
 22a:	8a bb       	out	0x1a, r24	; 26
 22c:	08 95       	ret
 22e:	41 30       	cpi	r20, 0x01	; 1
 230:	59 f4       	brne	.+22     	; 0x248 <pinMode+0x6c>
 232:	27 b3       	in	r18, 0x17	; 23
 234:	81 e0       	ldi	r24, 0x01	; 1
 236:	90 e0       	ldi	r25, 0x00	; 0
 238:	02 c0       	rjmp	.+4      	; 0x23e <pinMode+0x62>
 23a:	88 0f       	add	r24, r24
 23c:	99 1f       	adc	r25, r25
 23e:	6a 95       	dec	r22
 240:	e2 f7       	brpl	.-8      	; 0x23a <pinMode+0x5e>
 242:	28 2b       	or	r18, r24
 244:	27 bb       	out	0x17, r18	; 23
 246:	08 95       	ret
 248:	27 b3       	in	r18, 0x17	; 23
 24a:	81 e0       	ldi	r24, 0x01	; 1
 24c:	90 e0       	ldi	r25, 0x00	; 0
 24e:	02 c0       	rjmp	.+4      	; 0x254 <pinMode+0x78>
 250:	88 0f       	add	r24, r24
 252:	99 1f       	adc	r25, r25
 254:	6a 95       	dec	r22
 256:	e2 f7       	brpl	.-8      	; 0x250 <pinMode+0x74>
 258:	80 95       	com	r24
 25a:	82 23       	and	r24, r18
 25c:	87 bb       	out	0x17, r24	; 23
 25e:	08 95       	ret
 260:	41 30       	cpi	r20, 0x01	; 1
 262:	59 f4       	brne	.+22     	; 0x27a <pinMode+0x9e>
 264:	24 b3       	in	r18, 0x14	; 20
 266:	81 e0       	ldi	r24, 0x01	; 1
 268:	90 e0       	ldi	r25, 0x00	; 0
 26a:	02 c0       	rjmp	.+4      	; 0x270 <pinMode+0x94>
 26c:	88 0f       	add	r24, r24
 26e:	99 1f       	adc	r25, r25
 270:	6a 95       	dec	r22
 272:	e2 f7       	brpl	.-8      	; 0x26c <pinMode+0x90>
 274:	28 2b       	or	r18, r24
 276:	24 bb       	out	0x14, r18	; 20
 278:	08 95       	ret
 27a:	24 b3       	in	r18, 0x14	; 20
 27c:	81 e0       	ldi	r24, 0x01	; 1
 27e:	90 e0       	ldi	r25, 0x00	; 0
 280:	02 c0       	rjmp	.+4      	; 0x286 <pinMode+0xaa>
 282:	88 0f       	add	r24, r24
 284:	99 1f       	adc	r25, r25
 286:	6a 95       	dec	r22
 288:	e2 f7       	brpl	.-8      	; 0x282 <pinMode+0xa6>
 28a:	80 95       	com	r24
 28c:	82 23       	and	r24, r18
 28e:	84 bb       	out	0x14, r24	; 20
 290:	08 95       	ret
 292:	41 30       	cpi	r20, 0x01	; 1
 294:	59 f4       	brne	.+22     	; 0x2ac <pinMode+0xd0>
 296:	21 b3       	in	r18, 0x11	; 17
 298:	81 e0       	ldi	r24, 0x01	; 1
 29a:	90 e0       	ldi	r25, 0x00	; 0
 29c:	02 c0       	rjmp	.+4      	; 0x2a2 <pinMode+0xc6>
 29e:	88 0f       	add	r24, r24
 2a0:	99 1f       	adc	r25, r25
 2a2:	6a 95       	dec	r22
 2a4:	e2 f7       	brpl	.-8      	; 0x29e <pinMode+0xc2>
 2a6:	28 2b       	or	r18, r24
 2a8:	21 bb       	out	0x11, r18	; 17
 2aa:	08 95       	ret
 2ac:	21 b3       	in	r18, 0x11	; 17
 2ae:	81 e0       	ldi	r24, 0x01	; 1
 2b0:	90 e0       	ldi	r25, 0x00	; 0
 2b2:	02 c0       	rjmp	.+4      	; 0x2b8 <pinMode+0xdc>
 2b4:	88 0f       	add	r24, r24
 2b6:	99 1f       	adc	r25, r25
 2b8:	6a 95       	dec	r22
 2ba:	e2 f7       	brpl	.-8      	; 0x2b4 <pinMode+0xd8>
 2bc:	80 95       	com	r24
 2be:	82 23       	and	r24, r18
 2c0:	81 bb       	out	0x11, r24	; 17
 2c2:	08 95       	ret

000002c4 <pinWrite>:
 2c4:	68 30       	cpi	r22, 0x08	; 8
 2c6:	08 f0       	brcs	.+2      	; 0x2ca <pinWrite+0x6>
 2c8:	70 c0       	rjmp	.+224    	; 0x3aa <pinWrite+0xe6>
 2ca:	8b 30       	cpi	r24, 0x0B	; 11
 2cc:	08 f0       	brcs	.+2      	; 0x2d0 <pinWrite+0xc>
 2ce:	6d c0       	rjmp	.+218    	; 0x3aa <pinWrite+0xe6>
 2d0:	81 30       	cpi	r24, 0x01	; 1
 2d2:	09 f1       	breq	.+66     	; 0x316 <pinWrite+0x52>
 2d4:	81 30       	cpi	r24, 0x01	; 1
 2d6:	30 f0       	brcs	.+12     	; 0x2e4 <pinWrite+0x20>
 2d8:	82 30       	cpi	r24, 0x02	; 2
 2da:	b1 f1       	breq	.+108    	; 0x348 <pinWrite+0x84>
 2dc:	83 30       	cpi	r24, 0x03	; 3
 2de:	09 f0       	breq	.+2      	; 0x2e2 <pinWrite+0x1e>
 2e0:	64 c0       	rjmp	.+200    	; 0x3aa <pinWrite+0xe6>
 2e2:	4b c0       	rjmp	.+150    	; 0x37a <pinWrite+0xb6>
 2e4:	41 30       	cpi	r20, 0x01	; 1
 2e6:	59 f4       	brne	.+22     	; 0x2fe <pinWrite+0x3a>
 2e8:	2b b3       	in	r18, 0x1b	; 27
 2ea:	81 e0       	ldi	r24, 0x01	; 1
 2ec:	90 e0       	ldi	r25, 0x00	; 0
 2ee:	02 c0       	rjmp	.+4      	; 0x2f4 <pinWrite+0x30>
 2f0:	88 0f       	add	r24, r24
 2f2:	99 1f       	adc	r25, r25
 2f4:	6a 95       	dec	r22
 2f6:	e2 f7       	brpl	.-8      	; 0x2f0 <pinWrite+0x2c>
 2f8:	28 2b       	or	r18, r24
 2fa:	2b bb       	out	0x1b, r18	; 27
 2fc:	08 95       	ret
 2fe:	2b b3       	in	r18, 0x1b	; 27
 300:	81 e0       	ldi	r24, 0x01	; 1
 302:	90 e0       	ldi	r25, 0x00	; 0
 304:	02 c0       	rjmp	.+4      	; 0x30a <pinWrite+0x46>
 306:	88 0f       	add	r24, r24
 308:	99 1f       	adc	r25, r25
 30a:	6a 95       	dec	r22
 30c:	e2 f7       	brpl	.-8      	; 0x306 <pinWrite+0x42>
 30e:	80 95       	com	r24
 310:	82 23       	and	r24, r18
 312:	8b bb       	out	0x1b, r24	; 27
 314:	08 95       	ret
 316:	41 30       	cpi	r20, 0x01	; 1
 318:	59 f4       	brne	.+22     	; 0x330 <pinWrite+0x6c>
 31a:	28 b3       	in	r18, 0x18	; 24
 31c:	81 e0       	ldi	r24, 0x01	; 1
 31e:	90 e0       	ldi	r25, 0x00	; 0
 320:	02 c0       	rjmp	.+4      	; 0x326 <pinWrite+0x62>
 322:	88 0f       	add	r24, r24
 324:	99 1f       	adc	r25, r25
 326:	6a 95       	dec	r22
 328:	e2 f7       	brpl	.-8      	; 0x322 <pinWrite+0x5e>
 32a:	28 2b       	or	r18, r24
 32c:	28 bb       	out	0x18, r18	; 24
 32e:	08 95       	ret
 330:	28 b3       	in	r18, 0x18	; 24
 332:	81 e0       	ldi	r24, 0x01	; 1
 334:	90 e0       	ldi	r25, 0x00	; 0
 336:	02 c0       	rjmp	.+4      	; 0x33c <pinWrite+0x78>
 338:	88 0f       	add	r24, r24
 33a:	99 1f       	adc	r25, r25
 33c:	6a 95       	dec	r22
 33e:	e2 f7       	brpl	.-8      	; 0x338 <pinWrite+0x74>
 340:	80 95       	com	r24
 342:	82 23       	and	r24, r18
 344:	88 bb       	out	0x18, r24	; 24
 346:	08 95       	ret
 348:	41 30       	cpi	r20, 0x01	; 1
 34a:	59 f4       	brne	.+22     	; 0x362 <pinWrite+0x9e>
 34c:	25 b3       	in	r18, 0x15	; 21
 34e:	81 e0       	ldi	r24, 0x01	; 1
 350:	90 e0       	ldi	r25, 0x00	; 0
 352:	02 c0       	rjmp	.+4      	; 0x358 <pinWrite+0x94>
 354:	88 0f       	add	r24, r24
 356:	99 1f       	adc	r25, r25
 358:	6a 95       	dec	r22
 35a:	e2 f7       	brpl	.-8      	; 0x354 <pinWrite+0x90>
 35c:	28 2b       	or	r18, r24
 35e:	25 bb       	out	0x15, r18	; 21
 360:	08 95       	ret
 362:	25 b3       	in	r18, 0x15	; 21
 364:	81 e0       	ldi	r24, 0x01	; 1
 366:	90 e0       	ldi	r25, 0x00	; 0
 368:	02 c0       	rjmp	.+4      	; 0x36e <pinWrite+0xaa>
 36a:	88 0f       	add	r24, r24
 36c:	99 1f       	adc	r25, r25
 36e:	6a 95       	dec	r22
 370:	e2 f7       	brpl	.-8      	; 0x36a <pinWrite+0xa6>
 372:	80 95       	com	r24
 374:	82 23       	and	r24, r18
 376:	85 bb       	out	0x15, r24	; 21
 378:	08 95       	ret
 37a:	41 30       	cpi	r20, 0x01	; 1
 37c:	59 f4       	brne	.+22     	; 0x394 <pinWrite+0xd0>
 37e:	22 b3       	in	r18, 0x12	; 18
 380:	81 e0       	ldi	r24, 0x01	; 1
 382:	90 e0       	ldi	r25, 0x00	; 0
 384:	02 c0       	rjmp	.+4      	; 0x38a <pinWrite+0xc6>
 386:	88 0f       	add	r24, r24
 388:	99 1f       	adc	r25, r25
 38a:	6a 95       	dec	r22
 38c:	e2 f7       	brpl	.-8      	; 0x386 <pinWrite+0xc2>
 38e:	28 2b       	or	r18, r24
 390:	22 bb       	out	0x12, r18	; 18
 392:	08 95       	ret
 394:	22 b3       	in	r18, 0x12	; 18
 396:	81 e0       	ldi	r24, 0x01	; 1
 398:	90 e0       	ldi	r25, 0x00	; 0
 39a:	02 c0       	rjmp	.+4      	; 0x3a0 <pinWrite+0xdc>
 39c:	88 0f       	add	r24, r24
 39e:	99 1f       	adc	r25, r25
 3a0:	6a 95       	dec	r22
 3a2:	e2 f7       	brpl	.-8      	; 0x39c <pinWrite+0xd8>
 3a4:	80 95       	com	r24
 3a6:	82 23       	and	r24, r18
 3a8:	82 bb       	out	0x12, r24	; 18
 3aa:	08 95       	ret

000003ac <pinRead>:
 3ac:	68 30       	cpi	r22, 0x08	; 8
 3ae:	d0 f4       	brcc	.+52     	; 0x3e4 <pinRead+0x38>
 3b0:	8b 30       	cpi	r24, 0x0B	; 11
 3b2:	c0 f4       	brcc	.+48     	; 0x3e4 <pinRead+0x38>
 3b4:	81 30       	cpi	r24, 0x01	; 1
 3b6:	49 f0       	breq	.+18     	; 0x3ca <pinRead+0x1e>
 3b8:	81 30       	cpi	r24, 0x01	; 1
 3ba:	28 f0       	brcs	.+10     	; 0x3c6 <pinRead+0x1a>
 3bc:	82 30       	cpi	r24, 0x02	; 2
 3be:	39 f0       	breq	.+14     	; 0x3ce <pinRead+0x22>
 3c0:	83 30       	cpi	r24, 0x03	; 3
 3c2:	81 f4       	brne	.+32     	; 0x3e4 <pinRead+0x38>
 3c4:	06 c0       	rjmp	.+12     	; 0x3d2 <pinRead+0x26>
 3c6:	89 b3       	in	r24, 0x19	; 25
 3c8:	05 c0       	rjmp	.+10     	; 0x3d4 <pinRead+0x28>
 3ca:	86 b3       	in	r24, 0x16	; 22
 3cc:	03 c0       	rjmp	.+6      	; 0x3d4 <pinRead+0x28>
 3ce:	83 b3       	in	r24, 0x13	; 19
 3d0:	01 c0       	rjmp	.+2      	; 0x3d4 <pinRead+0x28>
 3d2:	80 b3       	in	r24, 0x10	; 16
 3d4:	90 e0       	ldi	r25, 0x00	; 0
 3d6:	02 c0       	rjmp	.+4      	; 0x3dc <pinRead+0x30>
 3d8:	95 95       	asr	r25
 3da:	87 95       	ror	r24
 3dc:	6a 95       	dec	r22
 3de:	e2 f7       	brpl	.-8      	; 0x3d8 <pinRead+0x2c>
 3e0:	81 70       	andi	r24, 0x01	; 1
 3e2:	08 95       	ret
 3e4:	80 e0       	ldi	r24, 0x00	; 0
 3e6:	08 95       	ret

000003e8 <portMode>:
 3e8:	8b 30       	cpi	r24, 0x0B	; 11
 3ea:	80 f4       	brcc	.+32     	; 0x40c <portMode+0x24>
 3ec:	81 30       	cpi	r24, 0x01	; 1
 3ee:	49 f0       	breq	.+18     	; 0x402 <portMode+0x1a>
 3f0:	81 30       	cpi	r24, 0x01	; 1
 3f2:	28 f0       	brcs	.+10     	; 0x3fe <portMode+0x16>
 3f4:	82 30       	cpi	r24, 0x02	; 2
 3f6:	39 f0       	breq	.+14     	; 0x406 <portMode+0x1e>
 3f8:	83 30       	cpi	r24, 0x03	; 3
 3fa:	41 f4       	brne	.+16     	; 0x40c <portMode+0x24>
 3fc:	06 c0       	rjmp	.+12     	; 0x40a <portMode+0x22>
 3fe:	6a bb       	out	0x1a, r22	; 26
 400:	08 95       	ret
 402:	67 bb       	out	0x17, r22	; 23
 404:	08 95       	ret
 406:	64 bb       	out	0x14, r22	; 20
 408:	08 95       	ret
 40a:	61 bb       	out	0x11, r22	; 17
 40c:	08 95       	ret

0000040e <portWrite>:
 40e:	8b 30       	cpi	r24, 0x0B	; 11
 410:	80 f4       	brcc	.+32     	; 0x432 <portWrite+0x24>
 412:	81 30       	cpi	r24, 0x01	; 1
 414:	49 f0       	breq	.+18     	; 0x428 <portWrite+0x1a>
 416:	81 30       	cpi	r24, 0x01	; 1
 418:	28 f0       	brcs	.+10     	; 0x424 <portWrite+0x16>
 41a:	82 30       	cpi	r24, 0x02	; 2
 41c:	39 f0       	breq	.+14     	; 0x42c <portWrite+0x1e>
 41e:	83 30       	cpi	r24, 0x03	; 3
 420:	41 f4       	brne	.+16     	; 0x432 <portWrite+0x24>
 422:	06 c0       	rjmp	.+12     	; 0x430 <portWrite+0x22>
 424:	6b bb       	out	0x1b, r22	; 27
 426:	08 95       	ret
 428:	68 bb       	out	0x18, r22	; 24
 42a:	08 95       	ret
 42c:	65 bb       	out	0x15, r22	; 21
 42e:	08 95       	ret
 430:	62 bb       	out	0x12, r22	; 18
 432:	08 95       	ret

00000434 <portRead>:
 434:	8b 30       	cpi	r24, 0x0B	; 11
 436:	88 f4       	brcc	.+34     	; 0x45a <portRead+0x26>
 438:	81 30       	cpi	r24, 0x01	; 1
 43a:	49 f0       	breq	.+18     	; 0x44e <portRead+0x1a>
 43c:	81 30       	cpi	r24, 0x01	; 1
 43e:	28 f0       	brcs	.+10     	; 0x44a <portRead+0x16>
 440:	82 30       	cpi	r24, 0x02	; 2
 442:	39 f0       	breq	.+14     	; 0x452 <portRead+0x1e>
 444:	83 30       	cpi	r24, 0x03	; 3
 446:	49 f4       	brne	.+18     	; 0x45a <portRead+0x26>
 448:	06 c0       	rjmp	.+12     	; 0x456 <portRead+0x22>
 44a:	89 b3       	in	r24, 0x19	; 25
 44c:	08 95       	ret
 44e:	86 b3       	in	r24, 0x16	; 22
 450:	08 95       	ret
 452:	83 b3       	in	r24, 0x13	; 19
 454:	08 95       	ret
 456:	80 b3       	in	r24, 0x10	; 16
 458:	08 95       	ret
 45a:	80 e0       	ldi	r24, 0x00	; 0
 45c:	08 95       	ret

0000045e <__vector_6>:
 45e:	1f 92       	push	r1
 460:	0f 92       	push	r0
 462:	0f b6       	in	r0, 0x3f	; 63
 464:	0f 92       	push	r0
 466:	11 24       	eor	r1, r1
 468:	2f 93       	push	r18
 46a:	3f 93       	push	r19
 46c:	4f 93       	push	r20
 46e:	5f 93       	push	r21
 470:	6f 93       	push	r22
 472:	7f 93       	push	r23
 474:	8f 93       	push	r24
 476:	9f 93       	push	r25
 478:	af 93       	push	r26
 47a:	bf 93       	push	r27
 47c:	ef 93       	push	r30
 47e:	ff 93       	push	r31
 480:	e0 91 62 00 	lds	r30, 0x0062
 484:	f0 91 63 00 	lds	r31, 0x0063
 488:	30 97       	sbiw	r30, 0x00	; 0
 48a:	09 f0       	breq	.+2      	; 0x48e <__vector_6+0x30>
 48c:	09 95       	icall
 48e:	ff 91       	pop	r31
 490:	ef 91       	pop	r30
 492:	bf 91       	pop	r27
 494:	af 91       	pop	r26
 496:	9f 91       	pop	r25
 498:	8f 91       	pop	r24
 49a:	7f 91       	pop	r23
 49c:	6f 91       	pop	r22
 49e:	5f 91       	pop	r21
 4a0:	4f 91       	pop	r20
 4a2:	3f 91       	pop	r19
 4a4:	2f 91       	pop	r18
 4a6:	0f 90       	pop	r0
 4a8:	0f be       	out	0x3f, r0	; 63
 4aa:	0f 90       	pop	r0
 4ac:	1f 90       	pop	r1
 4ae:	18 95       	reti

000004b0 <ICU_setCallBack>:
 4b0:	90 93 63 00 	sts	0x0063, r25
 4b4:	80 93 62 00 	sts	0x0062, r24
 4b8:	08 95       	ret

000004ba <ICU_setEdgeDetectionType>:
 4ba:	9e b5       	in	r25, 0x2e	; 46
 4bc:	82 95       	swap	r24
 4be:	88 0f       	add	r24, r24
 4c0:	88 0f       	add	r24, r24
 4c2:	80 7c       	andi	r24, 0xC0	; 192
 4c4:	9f 7b       	andi	r25, 0xBF	; 191
 4c6:	98 2b       	or	r25, r24
 4c8:	9e bd       	out	0x2e, r25	; 46
 4ca:	08 95       	ret

000004cc <ICU_getInputCaptureValue>:
 4cc:	26 b5       	in	r18, 0x26	; 38
 4ce:	37 b5       	in	r19, 0x27	; 39
 4d0:	c9 01       	movw	r24, r18
 4d2:	08 95       	ret

000004d4 <ICU_clearTimerValue>:
 4d4:	1d bc       	out	0x2d, r1	; 45
 4d6:	1c bc       	out	0x2c, r1	; 44
 4d8:	08 95       	ret

000004da <ICU_DeInit>:
 4da:	1f bc       	out	0x2f, r1	; 47
 4dc:	1e bc       	out	0x2e, r1	; 46
 4de:	1d bc       	out	0x2d, r1	; 45
 4e0:	1c bc       	out	0x2c, r1	; 44
 4e2:	17 bc       	out	0x27, r1	; 39
 4e4:	16 bc       	out	0x26, r1	; 38
 4e6:	89 b7       	in	r24, 0x39	; 57
 4e8:	8f 7d       	andi	r24, 0xDF	; 223
 4ea:	89 bf       	out	0x39, r24	; 57
 4ec:	08 95       	ret

000004ee <ICU_init>:
 4ee:	fc 01       	movw	r30, r24
 4f0:	8c e0       	ldi	r24, 0x0C	; 12
 4f2:	8f bd       	out	0x2f, r24	; 47
 4f4:	8e b5       	in	r24, 0x2e	; 46
 4f6:	88 7f       	andi	r24, 0xF8	; 248
 4f8:	91 81       	ldd	r25, Z+1	; 0x01
 4fa:	89 2b       	or	r24, r25
 4fc:	8e bd       	out	0x2e, r24	; 46
 4fe:	9e b5       	in	r25, 0x2e	; 46
 500:	80 81       	ld	r24, Z
 502:	82 95       	swap	r24
 504:	88 0f       	add	r24, r24
 506:	88 0f       	add	r24, r24
 508:	80 7c       	andi	r24, 0xC0	; 192
 50a:	9f 7b       	andi	r25, 0xBF	; 191
 50c:	89 2b       	or	r24, r25
 50e:	8e bd       	out	0x2e, r24	; 46
 510:	83 e0       	ldi	r24, 0x03	; 3
 512:	66 e0       	ldi	r22, 0x06	; 6
 514:	40 e0       	ldi	r20, 0x00	; 0
 516:	0e 94 ee 00 	call	0x1dc	; 0x1dc <pinMode>
 51a:	1d bc       	out	0x2d, r1	; 45
 51c:	1c bc       	out	0x2c, r1	; 44
 51e:	17 bc       	out	0x27, r1	; 39
 520:	16 bc       	out	0x26, r1	; 38
 522:	80 e2       	ldi	r24, 0x20	; 32
 524:	89 bf       	out	0x39, r24	; 57
 526:	08 95       	ret

00000528 <speed>:
 528:	0e 94 dd 03 	call	0x7ba	; 0x7ba <T0_PWM>
 52c:	08 95       	ret

0000052e <stop>:
 52e:	82 e0       	ldi	r24, 0x02	; 2
 530:	0e 94 9a 00 	call	0x134	; 0x134 <Motor1_Rot>
 534:	82 e0       	ldi	r24, 0x02	; 2
 536:	0e 94 74 00 	call	0xe8	; 0xe8 <Motor2_Rot>
 53a:	08 95       	ret

0000053c <right>:
 53c:	80 e0       	ldi	r24, 0x00	; 0
 53e:	0e 94 9a 00 	call	0x134	; 0x134 <Motor1_Rot>
 542:	81 e0       	ldi	r24, 0x01	; 1
 544:	0e 94 74 00 	call	0xe8	; 0xe8 <Motor2_Rot>
 548:	08 95       	ret

0000054a <left>:
 54a:	81 e0       	ldi	r24, 0x01	; 1
 54c:	0e 94 9a 00 	call	0x134	; 0x134 <Motor1_Rot>
 550:	80 e0       	ldi	r24, 0x00	; 0
 552:	0e 94 74 00 	call	0xe8	; 0xe8 <Motor2_Rot>
 556:	08 95       	ret

00000558 <backward>:
 558:	80 e0       	ldi	r24, 0x00	; 0
 55a:	0e 94 9a 00 	call	0x134	; 0x134 <Motor1_Rot>
 55e:	80 e0       	ldi	r24, 0x00	; 0
 560:	0e 94 74 00 	call	0xe8	; 0xe8 <Motor2_Rot>
 564:	08 95       	ret

00000566 <forward>:
 566:	81 e0       	ldi	r24, 0x01	; 1
 568:	0e 94 9a 00 	call	0x134	; 0x134 <Motor1_Rot>
 56c:	81 e0       	ldi	r24, 0x01	; 1
 56e:	0e 94 74 00 	call	0xe8	; 0xe8 <Motor2_Rot>
 572:	08 95       	ret

00000574 <Driver>:
 574:	0e 94 c0 00 	call	0x180	; 0x180 <Motor_Init>
 578:	08 95       	ret

0000057a <Ultrasonic_edgeProcessing>:
 57a:	80 91 64 00 	lds	r24, 0x0064
 57e:	8f 5f       	subi	r24, 0xFF	; 255
 580:	80 93 64 00 	sts	0x0064, r24
 584:	81 30       	cpi	r24, 0x01	; 1
 586:	31 f4       	brne	.+12     	; 0x594 <Ultrasonic_edgeProcessing+0x1a>
 588:	0e 94 6a 02 	call	0x4d4	; 0x4d4 <ICU_clearTimerValue>
 58c:	80 e0       	ldi	r24, 0x00	; 0
 58e:	0e 94 5d 02 	call	0x4ba	; 0x4ba <ICU_setEdgeDetectionType>
 592:	08 95       	ret
 594:	82 30       	cpi	r24, 0x02	; 2
 596:	59 f4       	brne	.+22     	; 0x5ae <Ultrasonic_edgeProcessing+0x34>
 598:	0e 94 66 02 	call	0x4cc	; 0x4cc <ICU_getInputCaptureValue>
 59c:	90 93 66 00 	sts	0x0066, r25
 5a0:	80 93 65 00 	sts	0x0065, r24
 5a4:	0e 94 6a 02 	call	0x4d4	; 0x4d4 <ICU_clearTimerValue>
 5a8:	81 e0       	ldi	r24, 0x01	; 1
 5aa:	0e 94 5d 02 	call	0x4ba	; 0x4ba <ICU_setEdgeDetectionType>
 5ae:	08 95       	ret

000005b0 <Ultrasonic_Trigger>:
 5b0:	81 e0       	ldi	r24, 0x01	; 1
 5b2:	65 e0       	ldi	r22, 0x05	; 5
 5b4:	41 e0       	ldi	r20, 0x01	; 1
 5b6:	0e 94 62 01 	call	0x2c4	; 0x2c4 <pinWrite>
 5ba:	8a e3       	ldi	r24, 0x3A	; 58
 5bc:	8a 95       	dec	r24
 5be:	f1 f7       	brne	.-4      	; 0x5bc <Ultrasonic_Trigger+0xc>
 5c0:	81 e0       	ldi	r24, 0x01	; 1
 5c2:	65 e0       	ldi	r22, 0x05	; 5
 5c4:	40 e0       	ldi	r20, 0x00	; 0
 5c6:	0e 94 62 01 	call	0x2c4	; 0x2c4 <pinWrite>
 5ca:	08 95       	ret

000005cc <Ultrasonic_readDistance>:
 5cc:	0e 94 d8 02 	call	0x5b0	; 0x5b0 <Ultrasonic_Trigger>
 5d0:	10 92 64 00 	sts	0x0064, r1
 5d4:	10 92 66 00 	sts	0x0066, r1
 5d8:	10 92 65 00 	sts	0x0065, r1
 5dc:	ff cf       	rjmp	.-2      	; 0x5dc <Ultrasonic_readDistance+0x10>

000005de <Ultrasonic_init>:
 5de:	80 e6       	ldi	r24, 0x60	; 96
 5e0:	90 e0       	ldi	r25, 0x00	; 0
 5e2:	0e 94 77 02 	call	0x4ee	; 0x4ee <ICU_init>
 5e6:	8d eb       	ldi	r24, 0xBD	; 189
 5e8:	92 e0       	ldi	r25, 0x02	; 2
 5ea:	0e 94 58 02 	call	0x4b0	; 0x4b0 <ICU_setCallBack>
 5ee:	81 e0       	ldi	r24, 0x01	; 1
 5f0:	65 e0       	ldi	r22, 0x05	; 5
 5f2:	41 e0       	ldi	r20, 0x01	; 1
 5f4:	0e 94 ee 00 	call	0x1dc	; 0x1dc <pinMode>
 5f8:	08 95       	ret

000005fa <ADC_init>:
 5fa:	3e 9a       	sbi	0x07, 6	; 7
 5fc:	3f 98       	cbi	0x07, 7	; 7
 5fe:	86 e8       	ldi	r24, 0x86	; 134
 600:	86 b9       	out	0x06, r24	; 6
 602:	08 95       	ret

00000604 <ADC_readChannel>:
 604:	97 b1       	in	r25, 0x07	; 7
 606:	90 7e       	andi	r25, 0xE0	; 224
 608:	97 b9       	out	0x07, r25	; 7
 60a:	97 b1       	in	r25, 0x07	; 7
 60c:	98 2b       	or	r25, r24
 60e:	97 b9       	out	0x07, r25	; 7
 610:	36 9a       	sbi	0x06, 6	; 6
 612:	34 9b       	sbis	0x06, 4	; 6
 614:	fe cf       	rjmp	.-4      	; 0x612 <ADC_readChannel+0xe>
 616:	34 9a       	sbi	0x06, 4	; 6
 618:	24 b1       	in	r18, 0x04	; 4
 61a:	35 b1       	in	r19, 0x05	; 5
 61c:	c9 01       	movw	r24, r18
 61e:	08 95       	ret

00000620 <rc_car_mode>:
 620:	0e 94 14 04 	call	0x828	; 0x828 <UART_recieveByte>
 624:	8a 34       	cpi	r24, 0x4A	; 74
 626:	09 f4       	brne	.+2      	; 0x62a <rc_car_mode+0xa>
 628:	79 c0       	rjmp	.+242    	; 0x71c <rc_car_mode+0xfc>
 62a:	8b 34       	cpi	r24, 0x4B	; 75
 62c:	88 f4       	brcc	.+34     	; 0x650 <rc_car_mode+0x30>
 62e:	87 34       	cpi	r24, 0x47	; 71
 630:	81 f1       	breq	.+96     	; 0x692 <rc_car_mode+0x72>
 632:	88 34       	cpi	r24, 0x48	; 72
 634:	30 f4       	brcc	.+12     	; 0x642 <rc_car_mode+0x22>
 636:	82 34       	cpi	r24, 0x42	; 66
 638:	19 f1       	breq	.+70     	; 0x680 <rc_car_mode+0x60>
 63a:	86 34       	cpi	r24, 0x46	; 70
 63c:	09 f0       	breq	.+2      	; 0x640 <rc_car_mode+0x20>
 63e:	8e c0       	rjmp	.+284    	; 0x75c <rc_car_mode+0x13c>
 640:	1c c0       	rjmp	.+56     	; 0x67a <rc_car_mode+0x5a>
 642:	88 34       	cpi	r24, 0x48	; 72
 644:	09 f4       	brne	.+2      	; 0x648 <rc_car_mode+0x28>
 646:	53 c0       	rjmp	.+166    	; 0x6ee <rc_car_mode+0xce>
 648:	89 34       	cpi	r24, 0x49	; 73
 64a:	09 f0       	breq	.+2      	; 0x64e <rc_car_mode+0x2e>
 64c:	87 c0       	rjmp	.+270    	; 0x75c <rc_car_mode+0x13c>
 64e:	38 c0       	rjmp	.+112    	; 0x6c0 <rc_car_mode+0xa0>
 650:	83 35       	cpi	r24, 0x53	; 83
 652:	09 f4       	brne	.+2      	; 0x656 <rc_car_mode+0x36>
 654:	83 c0       	rjmp	.+262    	; 0x75c <rc_car_mode+0x13c>
 656:	84 35       	cpi	r24, 0x54	; 84
 658:	30 f4       	brcc	.+12     	; 0x666 <rc_car_mode+0x46>
 65a:	8c 34       	cpi	r24, 0x4C	; 76
 65c:	a1 f0       	breq	.+40     	; 0x686 <rc_car_mode+0x66>
 65e:	82 35       	cpi	r24, 0x52	; 82
 660:	09 f0       	breq	.+2      	; 0x664 <rc_car_mode+0x44>
 662:	7c c0       	rjmp	.+248    	; 0x75c <rc_car_mode+0x13c>
 664:	13 c0       	rjmp	.+38     	; 0x68c <rc_car_mode+0x6c>
 666:	86 37       	cpi	r24, 0x76	; 118
 668:	09 f4       	brne	.+2      	; 0x66c <rc_car_mode+0x4c>
 66a:	72 c0       	rjmp	.+228    	; 0x750 <rc_car_mode+0x130>
 66c:	87 37       	cpi	r24, 0x77	; 119
 66e:	09 f4       	brne	.+2      	; 0x672 <rc_car_mode+0x52>
 670:	72 c0       	rjmp	.+228    	; 0x756 <rc_car_mode+0x136>
 672:	86 35       	cpi	r24, 0x56	; 86
 674:	09 f0       	breq	.+2      	; 0x678 <rc_car_mode+0x58>
 676:	72 c0       	rjmp	.+228    	; 0x75c <rc_car_mode+0x13c>
 678:	68 c0       	rjmp	.+208    	; 0x74a <rc_car_mode+0x12a>
 67a:	0e 94 b3 02 	call	0x566	; 0x566 <forward>
 67e:	08 95       	ret
 680:	0e 94 ac 02 	call	0x558	; 0x558 <backward>
 684:	08 95       	ret
 686:	0e 94 a5 02 	call	0x54a	; 0x54a <left>
 68a:	08 95       	ret
 68c:	0e 94 9e 02 	call	0x53c	; 0x53c <right>
 690:	08 95       	ret
 692:	0e 94 a5 02 	call	0x54a	; 0x54a <left>
 696:	84 ef       	ldi	r24, 0xF4	; 244
 698:	91 e0       	ldi	r25, 0x01	; 1
 69a:	20 e9       	ldi	r18, 0x90	; 144
 69c:	31 e0       	ldi	r19, 0x01	; 1
 69e:	f9 01       	movw	r30, r18
 6a0:	31 97       	sbiw	r30, 0x01	; 1
 6a2:	f1 f7       	brne	.-4      	; 0x6a0 <rc_car_mode+0x80>
 6a4:	01 97       	sbiw	r24, 0x01	; 1
 6a6:	d9 f7       	brne	.-10     	; 0x69e <rc_car_mode+0x7e>
 6a8:	0e 94 b3 02 	call	0x566	; 0x566 <forward>
 6ac:	84 ef       	ldi	r24, 0xF4	; 244
 6ae:	91 e0       	ldi	r25, 0x01	; 1
 6b0:	20 e9       	ldi	r18, 0x90	; 144
 6b2:	31 e0       	ldi	r19, 0x01	; 1
 6b4:	f9 01       	movw	r30, r18
 6b6:	31 97       	sbiw	r30, 0x01	; 1
 6b8:	f1 f7       	brne	.-4      	; 0x6b6 <rc_car_mode+0x96>
 6ba:	01 97       	sbiw	r24, 0x01	; 1
 6bc:	d9 f7       	brne	.-10     	; 0x6b4 <rc_car_mode+0x94>
 6be:	08 95       	ret
 6c0:	0e 94 9e 02 	call	0x53c	; 0x53c <right>
 6c4:	84 ef       	ldi	r24, 0xF4	; 244
 6c6:	91 e0       	ldi	r25, 0x01	; 1
 6c8:	20 e9       	ldi	r18, 0x90	; 144
 6ca:	31 e0       	ldi	r19, 0x01	; 1
 6cc:	f9 01       	movw	r30, r18
 6ce:	31 97       	sbiw	r30, 0x01	; 1
 6d0:	f1 f7       	brne	.-4      	; 0x6ce <rc_car_mode+0xae>
 6d2:	01 97       	sbiw	r24, 0x01	; 1
 6d4:	d9 f7       	brne	.-10     	; 0x6cc <rc_car_mode+0xac>
 6d6:	0e 94 b3 02 	call	0x566	; 0x566 <forward>
 6da:	84 ef       	ldi	r24, 0xF4	; 244
 6dc:	91 e0       	ldi	r25, 0x01	; 1
 6de:	20 e9       	ldi	r18, 0x90	; 144
 6e0:	31 e0       	ldi	r19, 0x01	; 1
 6e2:	f9 01       	movw	r30, r18
 6e4:	31 97       	sbiw	r30, 0x01	; 1
 6e6:	f1 f7       	brne	.-4      	; 0x6e4 <rc_car_mode+0xc4>
 6e8:	01 97       	sbiw	r24, 0x01	; 1
 6ea:	d9 f7       	brne	.-10     	; 0x6e2 <rc_car_mode+0xc2>
 6ec:	08 95       	ret
 6ee:	0e 94 a5 02 	call	0x54a	; 0x54a <left>
 6f2:	84 ef       	ldi	r24, 0xF4	; 244
 6f4:	91 e0       	ldi	r25, 0x01	; 1
 6f6:	20 e9       	ldi	r18, 0x90	; 144
 6f8:	31 e0       	ldi	r19, 0x01	; 1
 6fa:	f9 01       	movw	r30, r18
 6fc:	31 97       	sbiw	r30, 0x01	; 1
 6fe:	f1 f7       	brne	.-4      	; 0x6fc <rc_car_mode+0xdc>
 700:	01 97       	sbiw	r24, 0x01	; 1
 702:	d9 f7       	brne	.-10     	; 0x6fa <rc_car_mode+0xda>
 704:	0e 94 ac 02 	call	0x558	; 0x558 <backward>
 708:	84 ef       	ldi	r24, 0xF4	; 244
 70a:	91 e0       	ldi	r25, 0x01	; 1
 70c:	20 e9       	ldi	r18, 0x90	; 144
 70e:	31 e0       	ldi	r19, 0x01	; 1
 710:	f9 01       	movw	r30, r18
 712:	31 97       	sbiw	r30, 0x01	; 1
 714:	f1 f7       	brne	.-4      	; 0x712 <rc_car_mode+0xf2>
 716:	01 97       	sbiw	r24, 0x01	; 1
 718:	d9 f7       	brne	.-10     	; 0x710 <rc_car_mode+0xf0>
 71a:	08 95       	ret
 71c:	0e 94 9e 02 	call	0x53c	; 0x53c <right>
 720:	84 ef       	ldi	r24, 0xF4	; 244
 722:	91 e0       	ldi	r25, 0x01	; 1
 724:	20 e9       	ldi	r18, 0x90	; 144
 726:	31 e0       	ldi	r19, 0x01	; 1
 728:	f9 01       	movw	r30, r18
 72a:	31 97       	sbiw	r30, 0x01	; 1
 72c:	f1 f7       	brne	.-4      	; 0x72a <rc_car_mode+0x10a>
 72e:	01 97       	sbiw	r24, 0x01	; 1
 730:	d9 f7       	brne	.-10     	; 0x728 <rc_car_mode+0x108>
 732:	0e 94 ac 02 	call	0x558	; 0x558 <backward>
 736:	84 ef       	ldi	r24, 0xF4	; 244
 738:	91 e0       	ldi	r25, 0x01	; 1
 73a:	20 e9       	ldi	r18, 0x90	; 144
 73c:	31 e0       	ldi	r19, 0x01	; 1
 73e:	f9 01       	movw	r30, r18
 740:	31 97       	sbiw	r30, 0x01	; 1
 742:	f1 f7       	brne	.-4      	; 0x740 <rc_car_mode+0x120>
 744:	01 97       	sbiw	r24, 0x01	; 1
 746:	d9 f7       	brne	.-10     	; 0x73e <rc_car_mode+0x11e>
 748:	08 95       	ret
 74a:	0e 94 4f 00 	call	0x9e	; 0x9e <Buzzer_on>
 74e:	08 95       	ret
 750:	0e 94 49 00 	call	0x92	; 0x92 <Buzzer_off>
 754:	08 95       	ret
 756:	80 93 67 00 	sts	0x0067, r24
 75a:	08 95       	ret
 75c:	0e 94 97 02 	call	0x52e	; 0x52e <stop>
 760:	08 95       	ret

00000762 <main>:
 762:	60 e8       	ldi	r22, 0x80	; 128
 764:	75 e2       	ldi	r23, 0x25	; 37
 766:	80 e0       	ldi	r24, 0x00	; 0
 768:	90 e0       	ldi	r25, 0x00	; 0
 76a:	0e 94 f6 03 	call	0x7ec	; 0x7ec <UART_init>
 76e:	0e 94 ba 02 	call	0x574	; 0x574 <Driver>
 772:	0e 94 69 00 	call	0xd2	; 0xd2 <Buzzer_init>
 776:	0e 94 14 04 	call	0x828	; 0x828 <UART_recieveByte>
 77a:	80 93 67 00 	sts	0x0067, r24
 77e:	0e 94 10 03 	call	0x620	; 0x620 <rc_car_mode>
 782:	fd cf       	rjmp	.-6      	; 0x77e <main+0x1c>

00000784 <BT_TX_string>:
 784:	0e 94 18 04 	call	0x830	; 0x830 <UART_sendString>
 788:	08 95       	ret

0000078a <BT_TX>:
 78a:	0e 94 10 04 	call	0x820	; 0x820 <UART_sendByte>
 78e:	08 95       	ret

00000790 <BT_RX>:
 790:	0e 94 14 04 	call	0x828	; 0x828 <UART_recieveByte>
 794:	08 95       	ret

00000796 <BT_Init>:
 796:	60 e8       	ldi	r22, 0x80	; 128
 798:	75 e2       	ldi	r23, 0x25	; 37
 79a:	80 e0       	ldi	r24, 0x00	; 0
 79c:	90 e0       	ldi	r25, 0x00	; 0
 79e:	0e 94 f6 03 	call	0x7ec	; 0x7ec <UART_init>
 7a2:	08 95       	ret

000007a4 <Servo_SetAngle>:
 7a4:	0e 94 f4 03 	call	0x7e8	; 0x7e8 <T2_PWM>
 7a8:	08 95       	ret

000007aa <Servo_Init>:
 7aa:	0e 94 ef 03 	call	0x7de	; 0x7de <T2_init>
 7ae:	08 95       	ret

000007b0 <T0_init>:
 7b0:	1c be       	out	0x3c, r1	; 60
 7b2:	bb 9a       	sbi	0x17, 3	; 23
 7b4:	8a e6       	ldi	r24, 0x6A	; 106
 7b6:	83 bf       	out	0x33, r24	; 51
 7b8:	08 95       	ret

000007ba <T0_PWM>:
 7ba:	9f ef       	ldi	r25, 0xFF	; 255
 7bc:	89 9f       	mul	r24, r25
 7be:	c0 01       	movw	r24, r0
 7c0:	11 24       	eor	r1, r1
 7c2:	aa 27       	eor	r26, r26
 7c4:	97 fd       	sbrc	r25, 7
 7c6:	a0 95       	com	r26
 7c8:	ba 2f       	mov	r27, r26
 7ca:	bc 01       	movw	r22, r24
 7cc:	cd 01       	movw	r24, r26
 7ce:	24 e6       	ldi	r18, 0x64	; 100
 7d0:	30 e0       	ldi	r19, 0x00	; 0
 7d2:	40 e0       	ldi	r20, 0x00	; 0
 7d4:	50 e0       	ldi	r21, 0x00	; 0
 7d6:	0e 94 3c 04 	call	0x878	; 0x878 <__udivmodsi4>
 7da:	2c bf       	out	0x3c, r18	; 60
 7dc:	08 95       	ret

000007de <T2_init>:
 7de:	13 bc       	out	0x23, r1	; 35
 7e0:	8f 9a       	sbi	0x11, 7	; 17
 7e2:	8e e6       	ldi	r24, 0x6E	; 110
 7e4:	85 bd       	out	0x25, r24	; 37
 7e6:	08 95       	ret

000007e8 <T2_PWM>:
 7e8:	83 bd       	out	0x23, r24	; 35
 7ea:	08 95       	ret

000007ec <UART_init>:
 7ec:	9b 01       	movw	r18, r22
 7ee:	ac 01       	movw	r20, r24
 7f0:	82 e0       	ldi	r24, 0x02	; 2
 7f2:	8b b9       	out	0x0b, r24	; 11
 7f4:	88 e1       	ldi	r24, 0x18	; 24
 7f6:	8a b9       	out	0x0a, r24	; 10
 7f8:	86 e8       	ldi	r24, 0x86	; 134
 7fa:	80 bd       	out	0x20, r24	; 32
 7fc:	83 e0       	ldi	r24, 0x03	; 3
 7fe:	22 0f       	add	r18, r18
 800:	33 1f       	adc	r19, r19
 802:	44 1f       	adc	r20, r20
 804:	55 1f       	adc	r21, r21
 806:	8a 95       	dec	r24
 808:	d1 f7       	brne	.-12     	; 0x7fe <UART_init+0x12>
 80a:	60 e0       	ldi	r22, 0x00	; 0
 80c:	74 e2       	ldi	r23, 0x24	; 36
 80e:	84 ef       	ldi	r24, 0xF4	; 244
 810:	90 e0       	ldi	r25, 0x00	; 0
 812:	0e 94 3c 04 	call	0x878	; 0x878 <__udivmodsi4>
 816:	21 50       	subi	r18, 0x01	; 1
 818:	30 40       	sbci	r19, 0x00	; 0
 81a:	30 bd       	out	0x20, r19	; 32
 81c:	29 b9       	out	0x09, r18	; 9
 81e:	08 95       	ret

00000820 <UART_sendByte>:
 820:	5d 9b       	sbis	0x0b, 5	; 11
 822:	fe cf       	rjmp	.-4      	; 0x820 <UART_sendByte>
 824:	8c b9       	out	0x0c, r24	; 12
 826:	08 95       	ret

00000828 <UART_recieveByte>:
 828:	5f 9b       	sbis	0x0b, 7	; 11
 82a:	fe cf       	rjmp	.-4      	; 0x828 <UART_recieveByte>
 82c:	8c b1       	in	r24, 0x0c	; 12
 82e:	08 95       	ret

00000830 <UART_sendString>:
 830:	20 e0       	ldi	r18, 0x00	; 0
 832:	04 c0       	rjmp	.+8      	; 0x83c <UART_sendString+0xc>
 834:	5d 9b       	sbis	0x0b, 5	; 11
 836:	fe cf       	rjmp	.-4      	; 0x834 <UART_sendString+0x4>
 838:	ec b9       	out	0x0c, r30	; 12
 83a:	2f 5f       	subi	r18, 0xFF	; 255
 83c:	fc 01       	movw	r30, r24
 83e:	e2 0f       	add	r30, r18
 840:	f1 1d       	adc	r31, r1
 842:	e0 81       	ld	r30, Z
 844:	ee 23       	and	r30, r30
 846:	b1 f7       	brne	.-20     	; 0x834 <UART_sendString+0x4>
 848:	08 95       	ret

0000084a <UART_receiveString>:
 84a:	dc 01       	movw	r26, r24
 84c:	5f 9b       	sbis	0x0b, 7	; 11
 84e:	fe cf       	rjmp	.-4      	; 0x84c <UART_receiveString+0x2>
 850:	8c b1       	in	r24, 0x0c	; 12
 852:	8c 93       	st	X, r24
 854:	90 e0       	ldi	r25, 0x00	; 0
 856:	08 c0       	rjmp	.+16     	; 0x868 <__stack+0x9>
 858:	9f 5f       	subi	r25, 0xFF	; 255
 85a:	5f 9b       	sbis	0x0b, 7	; 11
 85c:	fe cf       	rjmp	.-4      	; 0x85a <UART_receiveString+0x10>
 85e:	8c b1       	in	r24, 0x0c	; 12
 860:	fd 01       	movw	r30, r26
 862:	e9 0f       	add	r30, r25
 864:	f1 1d       	adc	r31, r1
 866:	80 83       	st	Z, r24
 868:	fd 01       	movw	r30, r26
 86a:	e9 0f       	add	r30, r25
 86c:	f1 1d       	adc	r31, r1
 86e:	80 81       	ld	r24, Z
 870:	83 32       	cpi	r24, 0x23	; 35
 872:	91 f7       	brne	.-28     	; 0x858 <UART_receiveString+0xe>
 874:	10 82       	st	Z, r1
 876:	08 95       	ret

00000878 <__udivmodsi4>:
 878:	a1 e2       	ldi	r26, 0x21	; 33
 87a:	1a 2e       	mov	r1, r26
 87c:	aa 1b       	sub	r26, r26
 87e:	bb 1b       	sub	r27, r27
 880:	fd 01       	movw	r30, r26
 882:	0d c0       	rjmp	.+26     	; 0x89e <__udivmodsi4_ep>

00000884 <__udivmodsi4_loop>:
 884:	aa 1f       	adc	r26, r26
 886:	bb 1f       	adc	r27, r27
 888:	ee 1f       	adc	r30, r30
 88a:	ff 1f       	adc	r31, r31
 88c:	a2 17       	cp	r26, r18
 88e:	b3 07       	cpc	r27, r19
 890:	e4 07       	cpc	r30, r20
 892:	f5 07       	cpc	r31, r21
 894:	20 f0       	brcs	.+8      	; 0x89e <__udivmodsi4_ep>
 896:	a2 1b       	sub	r26, r18
 898:	b3 0b       	sbc	r27, r19
 89a:	e4 0b       	sbc	r30, r20
 89c:	f5 0b       	sbc	r31, r21

0000089e <__udivmodsi4_ep>:
 89e:	66 1f       	adc	r22, r22
 8a0:	77 1f       	adc	r23, r23
 8a2:	88 1f       	adc	r24, r24
 8a4:	99 1f       	adc	r25, r25
 8a6:	1a 94       	dec	r1
 8a8:	69 f7       	brne	.-38     	; 0x884 <__udivmodsi4_loop>
 8aa:	60 95       	com	r22
 8ac:	70 95       	com	r23
 8ae:	80 95       	com	r24
 8b0:	90 95       	com	r25
 8b2:	9b 01       	movw	r18, r22
 8b4:	ac 01       	movw	r20, r24
 8b6:	bd 01       	movw	r22, r26
 8b8:	cf 01       	movw	r24, r30
 8ba:	08 95       	ret

000008bc <_exit>:
 8bc:	f8 94       	cli

000008be <__stop_program>:
 8be:	ff cf       	rjmp	.-2      	; 0x8be <__stop_program>
